; ModuleID = '52/1643.c'
source_filename = "52/1643.c"
target datalayout = "e-m:e-p270:32:32-p271:32:32-p272:64:64-i64:64-f80:128-n8:16:32:64-S128"
target triple = "x86_64-pc-linux-gnu"

@.str = private unnamed_addr constant [6 x i8] c"%d %d\00", align 1
@.str.1 = private unnamed_addr constant [3 x i8] c"%d\00", align 1
@.str.2 = private unnamed_addr constant [4 x i8] c"%d \00", align 1

; Function Attrs: noinline nounwind uwtable
define dso_local void @main() #0 {
  %1 = alloca i32, align 4
  %2 = alloca i32, align 4
  %3 = alloca i32, align 4
  %4 = alloca i32, align 4
  %5 = alloca i32, align 4
  %6 = alloca i32*, align 8
  %7 = alloca i32*, align 8
  %8 = alloca [100 x i32], align 16
  %9 = call i32 (i8*, ...) @__isoc99_scanf(i8* getelementptr inbounds ([6 x i8], [6 x i8]* @.str, i64 0, i64 0), i32* %2, i32* %1)
  store i32 0, i32* %3, align 4
  br label %10

10:                                               ; preds = %19, %0
  %11 = load i32, i32* %3, align 4
  %12 = load i32, i32* %2, align 4
  %13 = icmp slt i32 %11, %12
  br i1 %13, label %14, label %22

14:                                               ; preds = %10
  %15 = load i32, i32* %3, align 4
  %16 = sext i32 %15 to i64
  %17 = getelementptr inbounds [100 x i32], [100 x i32]* %8, i64 0, i64 %16
  %18 = call i32 (i8*, ...) @__isoc99_scanf(i8* getelementptr inbounds ([3 x i8], [3 x i8]* @.str.1, i64 0, i64 0), i32* %17)
  br label %19

19:                                               ; preds = %14
  %20 = load i32, i32* %3, align 4
  %21 = add nsw i32 %20, 1
  store i32 %21, i32* %3, align 4
  br label %10

22:                                               ; preds = %10
  %23 = load i32, i32* %2, align 4
  %24 = load i32, i32* %1, align 4
  %25 = sub nsw i32 %23, %24
  %26 = sext i32 %25 to i64
  %27 = getelementptr inbounds [100 x i32], [100 x i32]* %8, i64 0, i64 %26
  store i32* %27, i32** %6, align 8
  %28 = getelementptr inbounds [100 x i32], [100 x i32]* %8, i64 0, i64 0
  store i32* %28, i32** %7, align 8
  store i32 0, i32* %5, align 4
  br label %29

29:                                               ; preds = %40, %22
  %30 = load i32, i32* %5, align 4
  %31 = load i32, i32* %1, align 4
  %32 = icmp slt i32 %30, %31
  br i1 %32, label %33, label %43

33:                                               ; preds = %29
  %34 = load i32*, i32** %6, align 8
  %35 = load i32, i32* %5, align 4
  %36 = sext i32 %35 to i64
  %37 = getelementptr inbounds i32, i32* %34, i64 %36
  %38 = load i32, i32* %37, align 4
  %39 = call i32 (i8*, ...) @printf(i8* getelementptr inbounds ([4 x i8], [4 x i8]* @.str.2, i64 0, i64 0), i32 %38)
  br label %40

40:                                               ; preds = %33
  %41 = load i32, i32* %5, align 4
  %42 = add nsw i32 %41, 1
  store i32 %42, i32* %5, align 4
  br label %29

43:                                               ; preds = %29
  store i32 0, i32* %4, align 4
  br label %44

44:                                               ; preds = %58, %43
  %45 = load i32, i32* %4, align 4
  %46 = load i32, i32* %2, align 4
  %47 = load i32, i32* %1, align 4
  %48 = sub nsw i32 %46, %47
  %49 = sub nsw i32 %48, 2
  %50 = icmp sle i32 %45, %49
  br i1 %50, label %51, label %61

51:                                               ; preds = %44
  %52 = load i32*, i32** %7, align 8
  %53 = load i32, i32* %4, align 4
  %54 = sext i32 %53 to i64
  %55 = getelementptr inbounds i32, i32* %52, i64 %54
  %56 = load i32, i32* %55, align 4
  %57 = call i32 (i8*, ...) @printf(i8* getelementptr inbounds ([4 x i8], [4 x i8]* @.str.2, i64 0, i64 0), i32 %56)
  br label %58

58:                                               ; preds = %51
  %59 = load i32, i32* %4, align 4
  %60 = add nsw i32 %59, 1
  store i32 %60, i32* %4, align 4
  br label %44

61:                                               ; preds = %44
  %62 = load i32*, i32** %7, align 8
  %63 = load i32, i32* %2, align 4
  %64 = sext i32 %63 to i64
  %65 = getelementptr inbounds i32, i32* %62, i64 %64
  %66 = load i32, i32* %1, align 4
  %67 = sext i32 %66 to i64
  %68 = sub i64 0, %67
  %69 = getelementptr inbounds i32, i32* %65, i64 %68
  %70 = getelementptr inbounds i32, i32* %69, i64 -1
  %71 = load i32, i32* %70, align 4
  %72 = call i32 (i8*, ...) @printf(i8* getelementptr inbounds ([3 x i8], [3 x i8]* @.str.1, i64 0, i64 0), i32 %71)
  ret void
}

declare dso_local i32 @__isoc99_scanf(i8*, ...) #1

declare dso_local i32 @printf(i8*, ...) #1


!llvm.module.flags = !{!0}
!llvm.ident = !{!1}

!0 = !{i32 1, !"wchar_size", i32 4}
!1 = !{!"clang version 10.0.0-4ubuntu1 "}
